Certificate:
    Data:
        Version: 1 (0x0)
        Serial Number: 1 (0x1)
        Signature Algorithm: sha256WithRSAEncryption
        Issuer: C=US, ST=Massachussetts, L=Boston, O=GabrielAimanJohn, OU=CNSecurity, CN=PasswordManagerCA/emailAddress=vegabito1112@gmail.com
        Validity
            Not Before: Apr 24 04:48:09 2024 GMT
            Not After : Apr 24 04:48:09 2025 GMT
        Subject: CN=PasswordManager
        Subject Public Key Info:
            Public Key Algorithm: rsaEncryption
                Public-Key: (2048 bit)
                Modulus:
                    00:9f:9e:61:06:67:1b:e0:a5:96:ee:8c:6b:7a:11:
                    9c:19:7c:ae:32:0d:d8:f1:8c:ae:05:11:0d:9d:83:
                    dc:f7:3f:c0:22:80:34:b7:99:b4:d4:22:ee:e2:59:
                    aa:98:02:f1:98:21:7d:17:ef:8d:ca:d4:02:78:88:
                    26:2e:2e:10:16:34:b6:41:2d:19:0a:9b:98:a4:3e:
                    ed:65:9f:dc:41:34:65:5f:16:a6:ce:25:4b:c4:01:
                    ca:6e:27:df:1d:9a:47:df:c9:8a:5f:11:67:e0:e8:
                    18:ba:34:e3:35:77:fe:81:8f:75:98:7a:c8:34:6f:
                    aa:5d:3d:dc:ca:7a:55:31:71:43:df:36:83:9e:ef:
                    39:08:70:56:5b:a4:59:5f:7e:a6:e9:75:90:44:23:
                    f0:6b:76:15:89:28:d0:7b:40:10:4d:be:b6:43:c4:
                    fd:a4:02:7a:6a:0d:7e:23:95:e1:8c:1d:c7:cb:85:
                    4e:8b:7c:09:4b:d1:98:d9:3a:f9:39:ca:cb:b4:d8:
                    2a:32:4f:c9:57:87:c8:0c:25:d2:18:e4:81:10:1c:
                    4a:9f:71:de:3d:dc:5d:76:f7:6a:91:8c:03:4b:ab:
                    03:b5:c9:a0:e1:5c:ce:f6:60:18:f8:2f:03:48:d1:
                    83:6e:7d:30:2c:80:bb:a2:95:9d:fa:36:a7:1e:e2:
                    cf:c5
                Exponent: 65537 (0x10001)
    Signature Algorithm: sha256WithRSAEncryption
    Signature Value:
        33:da:fe:74:5a:86:13:4a:66:6d:ec:5e:b5:f6:fe:29:3d:03:
        96:b4:59:fc:7a:50:77:0e:5b:8b:4d:b5:2e:f7:35:d2:77:8b:
        5e:d5:be:f7:c8:f1:96:3a:ce:38:3c:1a:e6:4a:c5:41:81:36:
        a8:7a:11:71:22:b1:17:eb:8e:5e:99:20:73:4d:e5:e8:68:50:
        a3:6b:89:bf:6c:e6:68:8d:56:89:f0:c2:fa:62:d6:1a:0e:f8:
        3c:d6:20:f1:aa:fa:91:a3:6d:85:82:74:39:9b:21:34:82:59:
        90:e0:48:8c:52:90:de:ba:37:d4:38:0a:8f:d1:bf:1f:47:7c:
        ca:cc:88:a3:bb:d4:d2:d0:56:92:53:bf:ad:6f:b8:39:15:79:
        be:38:02:40:34:99:47:b6:67:50:c0:f8:c9:0b:70:29:13:40:
        15:00:4d:87:b2:d6:d8:11:80:fd:ce:eb:4c:a9:52:2a:36:ee:
        36:55:ae:b9:dc:a4:1b:16:3e:ec:c6:b5:16:1f:a3:2e:24:45:
        06:c3:db:3b:1d:14:c1:f4:67:e3:64:80:6d:c4:88:a4:bc:74:
        1a:ed:1c:11:2c:63:e3:9b:08:2d:9d:83:62:c8:74:3c:58:43:
        03:ca:3b:b4:bb:9a:9b:9b:f1:31:ad:79:cd:e9:e6:38:8c:73:
        e1:00:61:31
-----BEGIN CERTIFICATE-----
MIIDOTCCAiECAQEwDQYJKoZIhvcNAQELBQAwgaoxCzAJBgNVBAYTAlVTMRcwFQYD
VQQIDA5NYXNzYWNodXNzZXR0czEPMA0GA1UEBwwGQm9zdG9uMRkwFwYDVQQKDBBH
YWJyaWVsQWltYW5Kb2huMRMwEQYDVQQLDApDTlNlY3VyaXR5MRowGAYDVQQDDBFQ
YXNzd29yZE1hbmFnZXJDQTElMCMGCSqGSIb3DQEJARYWdmVnYWJpdG8xMTEyQGdt
YWlsLmNvbTAeFw0yNDA0MjQwNDQ4MDlaFw0yNTA0MjQwNDQ4MDlaMBoxGDAWBgNV
BAMMD1Bhc3N3b3JkTWFuYWdlcjCCASIwDQYJKoZIhvcNAQEBBQADggEPADCCAQoC
ggEBAJ+eYQZnG+Cllu6Ma3oRnBl8rjIN2PGMrgURDZ2D3Pc/wCKANLeZtNQi7uJZ
qpgC8ZghfRfvjcrUAniIJi4uEBY0tkEtGQqbmKQ+7WWf3EE0ZV8Wps4lS8QBym4n
3x2aR9/Jil8RZ+DoGLo04zV3/oGPdZh6yDRvql093Mp6VTFxQ982g57vOQhwVluk
WV9+pul1kEQj8Gt2FYko0HtAEE2+tkPE/aQCemoNfiOV4Ywdx8uFTot8CUvRmNk6
+TnKy7TYKjJPyVeHyAwl0hjkgRAcSp9x3j3cXXb3apGMA0urA7XJoOFczvZgGPgv
A0jRg259MCyAu6KVnfo2px7iz8UCAwEAATANBgkqhkiG9w0BAQsFAAOCAQEAM9r+
dFqGE0pmbexetfb+KT0DlrRZ/HpQdw5bi021Lvc10neLXtW+98jxljrOODwa5krF
QYE2qHoRcSKxF+uOXpkgc03l6GhQo2uJv2zmaI1WifDC+mLWGg74PNYg8ar6kaNt
hYJ0OZshNIJZkOBIjFKQ3ro31DgKj9G/H0d8ysyIo7vU0tBWklO/rW+4ORV5vjgC
QDSZR7ZnUMD4yQtwKRNAFQBNh7LW2BGA/c7rTKlSKjbuNlWuudykGxY+7Ma1Fh+j
LiRFBsPbOx0UwfRn42SAbcSIpLx0Gu0cESxj45sILZ2DYsh0PFhDA8o7tLuam5vx
Ma15zenmOIxz4QBhMQ==
-----END CERTIFICATE-----
